ccopy_reg
_reconstructor
p0
(cnumpy.lib.polynomial
poly1d
p1
c__builtin__
object
p2
Ntp3
Rp4
(dp5
S'coeffs'
p6
cnumpy.core.multiarray
_reconstruct
p7
(cnumpy
ndarray
p8
(I0
tp9
S'b'
p10
tp11
Rp12
(I1
(I2
tp13
cnumpy
dtype
p14
(S'f8'
p15
I0
I1
tp16
Rp17
(I3
S'<'
p18
NNNI-1
I-1
I0
tp19
bI00
S'\x9f\xc2\x00\xb4~\xa6\xce?D`\xb1\x8f\x01O\x1b@'
p20
tp21
bsS'_variable'
p22
S'x'
p23
sb.